; Function Attrs: nounwind uwtable
define dso_local range(i32 -2, 1) i32 @cm_zlib_deflateResetKeep(ptr noundef %0) local_unnamed_addr #0 {
  %2 = icmp eq ptr %0, null
  br i1 %2, label %deflateStateCheck.exit.thread, label %3

3:                                                ; preds = %1
  %4 = getelementptr inbounds nuw i8, ptr %0, i64 64
  %5 = load ptr, ptr %4, align 8, !tbaa !14
  %6 = icmp eq ptr %5, null
  br i1 %6, label %deflateStateCheck.exit.thread, label %7

7:                                                ; preds = %3
  %8 = getelementptr inbounds nuw i8, ptr %0, i64 72
  %9 = load ptr, ptr %8, align 8, !tbaa !16
  %10 = icmp eq ptr %9, null
  br i1 %10, label %deflateStateCheck.exit.thread, label %11

11:                                               ; preds = %7
  %12 = getelementptr inbounds nuw i8, ptr %0, i64 56
  %13 = load ptr, ptr %12, align 8, !tbaa !17
  %14 = icmp eq ptr %13, null
  br i1 %14, label %deflateStateCheck.exit.thread, label %15

15:                                               ; preds = %11
  %16 = load ptr, ptr %13, align 8, !tbaa !18
  %.not.i = icmp eq ptr %16, %0
  br i1 %.not.i, label %17, label %deflateStateCheck.exit.thread

17:                                               ; preds = %15
  %18 = getelementptr inbounds nuw i8, ptr %13, i64 8
  %19 = load i32, ptr %18, align 8, !tbaa !27
  switch i32 %19, label %deflateStateCheck.exit.thread [
    i32 42, label %deflateStateCheck.exit
    i32 57, label %deflateStateCheck.exit
    i32 69, label %deflateStateCheck.exit
    i32 73, label %deflateStateCheck.exit
    i32 91, label %deflateStateCheck.exit
    i32 103, label %deflateStateCheck.exit
    i32 113, label %deflateStateCheck.exit
    i32 666, label %deflateStateCheck.exit
  ]

deflateStateCheck.exit:                           ; preds = %17, %17, %17, %17, %17, %17, %17, %17
  %20 = getelementptr inbounds nuw i8, ptr %0, i64 40
  %21 = getelementptr inbounds nuw i8, ptr %0, i64 16
  store i64 0, ptr %21, align 8, !tbaa !78
  %22 = getelementptr inbounds nuw i8, ptr %0, i64 88
  tail call void @llvm.memset.p0.i64(ptr noundef nonnull align 8 dereferenceable(16) %20, i8 0, i64 16, i1 false)
  store i32 2, ptr %22, align 8, !tbaa !82
  %23 = getelementptr inbounds nuw i8, ptr %13, i64 40
  store i64 0, ptr %23, align 8, !tbaa !83
  %24 = getelementptr inbounds nuw i8, ptr %13, i64 16
  %25 = load ptr, ptr %24, align 8, !tbaa !42
  %26 = getelementptr inbounds nuw i8, ptr %13, i64 32
  store ptr %25, ptr %26, align 8, !tbaa !84
  %27 = getelementptr inbounds nuw i8, ptr %13, i64 48
  %28 = load i32, ptr %27, align 8, !tbaa !28
  %29 = icmp slt i32 %28, 0
  br i1 %29, label %30, label %32

30:                                               ; preds = %deflateStateCheck.exit
  %31 = sub nsw i32 0, %28
  store i32 %31, ptr %27, align 8, !tbaa !28
  br label %32

32:                                               ; preds = %30, %deflateStateCheck.exit
  %33 = phi i32 [ %31, %30 ], [ %28, %deflateStateCheck.exit ]
  %34 = icmp eq i32 %33, 2
  %35 = select i1 %34, i32 57, i32 42
  store i32 %35, ptr %18, align 8, !tbaa !27
  br i1 %34, label %36, label %38

36:                                               ; preds = %32
  %37 = tail call i64 @cm_zlib_crc32(i64 noundef 0, ptr noundef null, i32 noundef 0) #10
  br label %40

38:                                               ; preds = %32
  %39 = tail call i64 @cm_zlib_adler32(i64 noundef 0, ptr noundef null, i32 noundef 0) #10
  br label %40

40:                                               ; preds = %38, %36
  %41 = phi i64 [ %37, %36 ], [ %39, %38 ]
  %42 = getelementptr inbounds nuw i8, ptr %0, i64 96
  store i64 %41, ptr %42, align 8, !tbaa !69
  %43 = getelementptr inbounds nuw i8, ptr %13, i64 76
  store i32 -2, ptr %43, align 4, !tbaa !85
  tail call void @cm_zlib__tr_init(ptr noundef nonnull %13) #10
  br label %deflateStateCheck.exit.thread

deflateStateCheck.exit.thread:                    ; preds = %11, %15, %17, %1, %3, %7, %40
  %.0 = phi i32 [ 0, %40 ], [ -2, %7 ], [ -2, %3 ], [ -2, %1 ], [ -2, %17 ], [ -2, %15 ], [ -2, %11 ]
  ret i32 %.0
}